target datalayout = "e-m:e-p270:32:32-p271:32:32-p272:64:64-i64:64-i128:128-f80:128-n8:16:32:64-S128"
target triple = "x86_64-pc-linux-gnu"

@.str.46 = private unnamed_addr constant [5 x i8] c"Mbps\00", align 1
@hf_nas_eps_esm_ext_apn_ambr_dl_unit = internal global i32 0, align 4
@hf_nas_eps_esm_ext_apn_ambr_dl = internal global i32 0, align 4
@.str.110 = private unnamed_addr constant [11 x i8] c"%u %s (%u)\00", align 1
@hf_nas_eps_esm_ext_apn_ambr_ul_unit = internal global i32 0, align 4
@hf_nas_eps_esm_ext_apn_ambr_ul = internal global i32 0, align 4
@.str.952 = private unnamed_addr constant [1 x i8] zeroinitializer, align 1
@.str.953 = private unnamed_addr constant [5 x i8] c"Gbps\00", align 1
@.str.954 = private unnamed_addr constant [5 x i8] c"Tbps\00", align 1
@.str.955 = private unnamed_addr constant [5 x i8] c"Pbps\00", align 1

; Function Attrs: nounwind null_pointer_is_valid sspstrong uwtable
define internal i32 @get_ext_ambr_unit(i32 noundef %0, ptr noundef %1) #3 {
  %3 = alloca i32, align 4
  %4 = alloca ptr, align 8
  %5 = alloca i32, align 4
  store i32 %0, ptr %3, align 4
  store ptr %1, ptr %4, align 8
  call void @llvm.lifetime.start.p0(i64 4, ptr %5) #10
  %6 = load i32, ptr %3, align 4
  %7 = icmp ule i32 %6, 2
  br i1 %7, label %8, label %10

8:                                                ; preds = %2
  store i32 0, ptr %5, align 4
  %9 = load ptr, ptr %4, align 8
  store ptr @.str.952, ptr %9, align 8
  br label %52

10:                                               ; preds = %2
  %11 = load i32, ptr %3, align 4
  %12 = icmp ule i32 %11, 6
  br i1 %12, label %13, label %19

13:                                               ; preds = %10
  %14 = load i32, ptr %3, align 4
  %15 = sub i32 %14, 2
  %16 = mul i32 2, %15
  %17 = shl i32 1, %16
  store i32 %17, ptr %5, align 4
  %18 = load ptr, ptr %4, align 8
  store ptr @.str.46, ptr %18, align 8
  br label %51

19:                                               ; preds = %10
  %20 = load i32, ptr %3, align 4
  %21 = icmp ule i32 %20, 11
  br i1 %21, label %22, label %28

22:                                               ; preds = %19
  %23 = load i32, ptr %3, align 4
  %24 = sub i32 %23, 7
  %25 = mul i32 2, %24
  %26 = shl i32 1, %25
  store i32 %26, ptr %5, align 4
  %27 = load ptr, ptr %4, align 8
  store ptr @.str.953, ptr %27, align 8
  br label %50

28:                                               ; preds = %19
  %29 = load i32, ptr %3, align 4
  %30 = icmp ule i32 %29, 16
  br i1 %30, label %31, label %37

31:                                               ; preds = %28
  %32 = load i32, ptr %3, align 4
  %33 = sub i32 %32, 12
  %34 = mul i32 2, %33
  %35 = shl i32 1, %34
  store i32 %35, ptr %5, align 4
  %36 = load ptr, ptr %4, align 8
  store ptr @.str.954, ptr %36, align 8
  br label %49

37:                                               ; preds = %28
  %38 = load i32, ptr %3, align 4
  %39 = icmp ule i32 %38, 21
  br i1 %39, label %40, label %46

40:                                               ; preds = %37
  %41 = load i32, ptr %3, align 4
  %42 = sub i32 %41, 17
  %43 = mul i32 2, %42
  %44 = shl i32 1, %43
  store i32 %44, ptr %5, align 4
  %45 = load ptr, ptr %4, align 8
  store ptr @.str.955, ptr %45, align 8
  br label %48

46:                                               ; preds = %37
  store i32 256, ptr %5, align 4
  %47 = load ptr, ptr %4, align 8
  store ptr @.str.955, ptr %47, align 8
  br label %48

48:                                               ; preds = %46, %40
  br label %49

49:                                               ; preds = %48, %31
  br label %50

50:                                               ; preds = %49, %22
  br label %51

51:                                               ; preds = %50, %13
  br label %52

52:                                               ; preds = %51, %8
  %53 = load i32, ptr %5, align 4
  call void @llvm.lifetime.end.p0(i64 4, ptr %5) #10
  ret i32 %53
}

; Function Attrs: null_pointer_is_valid sspstrong uwtable
define hidden zeroext i16 @de_esm_ext_apn_agr_max_br(ptr noundef %0, ptr noundef %1, ptr noundef %2, i32 noundef %3, i32 noundef %4, ptr noundef %5, i32 noundef %6) #1 {
  %8 = alloca ptr, align 8
  %9 = alloca ptr, align 8
  %10 = alloca ptr, align 8
  %11 = alloca i32, align 4
  %12 = alloca i32, align 4
  %13 = alloca ptr, align 8
  %14 = alloca i32, align 4
  %15 = alloca i32, align 4
  %16 = alloca i32, align 4
  %17 = alloca i32, align 4
  %18 = alloca i32, align 4
  %19 = alloca ptr, align 8
  store ptr %0, ptr %8, align 8
  store ptr %1, ptr %9, align 8
  store ptr %2, ptr %10, align 8
  store i32 %3, ptr %11, align 4
  store i32 %4, ptr %12, align 4
  store ptr %5, ptr %13, align 8
  store i32 %6, ptr %14, align 4
  call void @llvm.lifetime.start.p0(i64 4, ptr %15) #10
  call void @llvm.lifetime.start.p0(i64 4, ptr %16) #10
  call void @llvm.lifetime.start.p0(i64 4, ptr %17) #10
  call void @llvm.lifetime.start.p0(i64 4, ptr %18) #10
  call void @llvm.lifetime.start.p0(i64 8, ptr %19) #10
  %20 = load i32, ptr %11, align 4
  store i32 %20, ptr %15, align 4
  %21 = load ptr, ptr %9, align 8
  %22 = load i32, ptr @hf_nas_eps_esm_ext_apn_ambr_dl_unit, align 4
  %23 = load ptr, ptr %8, align 8
  %24 = load i32, ptr %15, align 4
  %25 = call ptr @proto_tree_add_item_ret_uint(ptr noundef %21, i32 noundef %22, ptr noundef %23, i32 noundef %24, i32 noundef 1, i32 noundef 0, ptr noundef %16)
  %26 = load i32, ptr %15, align 4
  %27 = add i32 %26, 1
  store i32 %27, ptr %15, align 4
  %28 = load i32, ptr %16, align 4
  %29 = call i32 @get_ext_ambr_unit(i32 noundef %28, ptr noundef %19)
  store i32 %29, ptr %17, align 4
  %30 = load ptr, ptr %8, align 8
  %31 = load i32, ptr %15, align 4
  %32 = call zeroext i16 @tvb_get_ntohs(ptr noundef %30, i32 noundef %31)
  %33 = zext i16 %32 to i32
  store i32 %33, ptr %18, align 4
  %34 = load ptr, ptr %9, align 8
  %35 = load i32, ptr @hf_nas_eps_esm_ext_apn_ambr_dl, align 4
  %36 = load ptr, ptr %8, align 8
  %37 = load i32, ptr %15, align 4
  %38 = load i32, ptr %18, align 4
  %39 = load i32, ptr %18, align 4
  %40 = load i32, ptr %17, align 4
  %41 = mul i32 %39, %40
  %42 = load ptr, ptr %19, align 8
  %43 = load i32, ptr %18, align 4
  %44 = call ptr (ptr, i32, ptr, i32, i32, i32, ptr, ...) @proto_tree_add_uint_format_value(ptr noundef %34, i32 noundef %35, ptr noundef %36, i32 noundef %37, i32 noundef 2, i32 noundef %38, ptr noundef @.str.110, i32 noundef %41, ptr noundef %42, i32 noundef %43)
  %45 = load i32, ptr %15, align 4
  %46 = add i32 %45, 2
  store i32 %46, ptr %15, align 4
  %47 = load ptr, ptr %9, align 8
  %48 = load i32, ptr @hf_nas_eps_esm_ext_apn_ambr_ul_unit, align 4
  %49 = load ptr, ptr %8, align 8
  %50 = load i32, ptr %15, align 4
  %51 = call ptr @proto_tree_add_item_ret_uint(ptr noundef %47, i32 noundef %48, ptr noundef %49, i32 noundef %50, i32 noundef 1, i32 noundef 0, ptr noundef %16)
  %52 = load i32, ptr %15, align 4
  %53 = add i32 %52, 1
  store i32 %53, ptr %15, align 4
  %54 = load i32, ptr %16, align 4
  %55 = call i32 @get_ext_ambr_unit(i32 noundef %54, ptr noundef %19)
  store i32 %55, ptr %17, align 4
  %56 = load ptr, ptr %8, align 8
  %57 = load i32, ptr %15, align 4
  %58 = call zeroext i16 @tvb_get_ntohs(ptr noundef %56, i32 noundef %57)
  %59 = zext i16 %58 to i32
  store i32 %59, ptr %18, align 4
  %60 = load ptr, ptr %9, align 8
  %61 = load i32, ptr @hf_nas_eps_esm_ext_apn_ambr_ul, align 4
  %62 = load ptr, ptr %8, align 8
  %63 = load i32, ptr %15, align 4
  %64 = load i32, ptr %18, align 4
  %65 = load i32, ptr %18, align 4
  %66 = load i32, ptr %17, align 4
  %67 = mul i32 %65, %66
  %68 = load ptr, ptr %19, align 8
  %69 = load i32, ptr %18, align 4
  %70 = call ptr (ptr, i32, ptr, i32, i32, i32, ptr, ...) @proto_tree_add_uint_format_value(ptr noundef %60, i32 noundef %61, ptr noundef %62, i32 noundef %63, i32 noundef 2, i32 noundef %64, ptr noundef @.str.110, i32 noundef %67, ptr noundef %68, i32 noundef %69)
  %71 = load i32, ptr %12, align 4
  %72 = trunc i32 %71 to i16
  call void @llvm.lifetime.end.p0(i64 8, ptr %19) #10
  call void @llvm.lifetime.end.p0(i64 4, ptr %18) #10
  call void @llvm.lifetime.end.p0(i64 4, ptr %17) #10
  call void @llvm.lifetime.end.p0(i64 4, ptr %16) #10
  call void @llvm.lifetime.end.p0(i64 4, ptr %15) #10
  ret i16 %72
}