; Function Attrs: null_pointer_is_valid sspstrong uwtable
define hidden noundef zeroext i16 @de_esm_ext_apn_agr_max_br(ptr noundef %0, ptr noundef %1, ptr readnone captures(none) %2, i32 noundef %3, i32 noundef %4, ptr readnone captures(none) %5, i32 %6) #1 {
  %8 = alloca i32, align 4
  call void @llvm.lifetime.start.p0(i64 4, ptr nonnull %8) #10
  %9 = load i32, ptr @hf_nas_eps_esm_ext_apn_ambr_dl_unit, align 4
  %10 = call ptr @proto_tree_add_item_ret_uint(ptr noundef %1, i32 noundef %9, ptr noundef %0, i32 noundef %3, i32 noundef 1, i32 noundef 0, ptr noundef nonnull %8)
  %11 = add i32 %3, 1
  %12 = load i32, ptr %8, align 4
  %13 = icmp ult i32 %12, 3
  br i1 %13, label %get_ext_ambr_unit.exit, label %14

14:                                               ; preds = %7
  %15 = icmp ult i32 %12, 7
  br i1 %15, label %16, label %20

16:                                               ; preds = %14
  %17 = shl nuw nsw i32 %12, 1
  %18 = add nsw i32 %17, -4
  %19 = shl nuw nsw i32 1, %18
  br label %get_ext_ambr_unit.exit

20:                                               ; preds = %14
  %21 = icmp ult i32 %12, 12
  br i1 %21, label %22, label %26

22:                                               ; preds = %20
  %23 = shl nuw nsw i32 %12, 1
  %24 = add nsw i32 %23, -14
  %25 = shl nuw nsw i32 1, %24
  br label %get_ext_ambr_unit.exit

26:                                               ; preds = %20
  %27 = icmp ult i32 %12, 17
  br i1 %27, label %28, label %32

28:                                               ; preds = %26
  %29 = shl nuw nsw i32 %12, 1
  %30 = add nsw i32 %29, -24
  %31 = shl nuw nsw i32 1, %30
  br label %get_ext_ambr_unit.exit

32:                                               ; preds = %26
  %33 = icmp ult i32 %12, 22
  br i1 %33, label %34, label %get_ext_ambr_unit.exit

34:                                               ; preds = %32
  %35 = shl nuw nsw i32 %12, 1
  %36 = add nsw i32 %35, -34
  %37 = shl nuw nsw i32 1, %36
  br label %get_ext_ambr_unit.exit

get_ext_ambr_unit.exit:                           ; preds = %7, %16, %22, %28, %32, %34
  %.str.46.sink.i = phi ptr [ @.str.46, %16 ], [ @.str.954, %28 ], [ @.str.955, %34 ], [ @.str.953, %22 ], [ @.str.952, %7 ], [ @.str.955, %32 ]
  %.0.i = phi i32 [ %19, %16 ], [ %31, %28 ], [ %37, %34 ], [ %25, %22 ], [ 0, %7 ], [ 256, %32 ]
  %38 = call zeroext i16 @tvb_get_ntohs(ptr noundef %0, i32 noundef %11)
  %39 = zext i16 %38 to i32
  %40 = load i32, ptr @hf_nas_eps_esm_ext_apn_ambr_dl, align 4
  %41 = mul nuw nsw i32 %.0.i, %39
  %42 = call ptr (ptr, i32, ptr, i32, i32, i32, ptr, ...) @proto_tree_add_uint_format_value(ptr noundef %1, i32 noundef %40, ptr noundef %0, i32 noundef %11, i32 noundef 2, i32 noundef %39, ptr noundef nonnull @.str.110, i32 noundef %41, ptr noundef nonnull %.str.46.sink.i, i32 noundef %39)
  %43 = add i32 %3, 3
  %44 = load i32, ptr @hf_nas_eps_esm_ext_apn_ambr_ul_unit, align 4
  %45 = call ptr @proto_tree_add_item_ret_uint(ptr noundef %1, i32 noundef %44, ptr noundef %0, i32 noundef %43, i32 noundef 1, i32 noundef 0, ptr noundef nonnull %8)
  %46 = load i32, ptr %8, align 4
  %47 = icmp ult i32 %46, 3
  br i1 %47, label %get_ext_ambr_unit.exit30, label %48

48:                                               ; preds = %get_ext_ambr_unit.exit
  %49 = icmp ult i32 %46, 7
  br i1 %49, label %50, label %54

50:                                               ; preds = %48
  %51 = shl nuw nsw i32 %46, 1
  %52 = add nsw i32 %51, -4
  %53 = shl nuw nsw i32 1, %52
  br label %get_ext_ambr_unit.exit30

54:                                               ; preds = %48
  %55 = icmp ult i32 %46, 12
  br i1 %55, label %56, label %60

56:                                               ; preds = %54
  %57 = shl nuw nsw i32 %46, 1
  %58 = add nsw i32 %57, -14
  %59 = shl nuw nsw i32 1, %58
  br label %get_ext_ambr_unit.exit30

60:                                               ; preds = %54
  %61 = icmp ult i32 %46, 17
  br i1 %61, label %62, label %66

62:                                               ; preds = %60
  %63 = shl nuw nsw i32 %46, 1
  %64 = add nsw i32 %63, -24
  %65 = shl nuw nsw i32 1, %64
  br label %get_ext_ambr_unit.exit30

66:                                               ; preds = %60
  %67 = icmp ult i32 %46, 22
  br i1 %67, label %68, label %get_ext_ambr_unit.exit30

68:                                               ; preds = %66
  %69 = shl nuw nsw i32 %46, 1
  %70 = add nsw i32 %69, -34
  %71 = shl nuw nsw i32 1, %70
  br label %get_ext_ambr_unit.exit30

get_ext_ambr_unit.exit30:                         ; preds = %get_ext_ambr_unit.exit, %50, %56, %62, %66, %68
  %.str.46.sink.i28 = phi ptr [ @.str.46, %50 ], [ @.str.954, %62 ], [ @.str.955, %68 ], [ @.str.953, %56 ], [ @.str.952, %get_ext_ambr_unit.exit ], [ @.str.955, %66 ]
  %.0.i29 = phi i32 [ %53, %50 ], [ %65, %62 ], [ %71, %68 ], [ %59, %56 ], [ 0, %get_ext_ambr_unit.exit ], [ 256, %66 ]
  %72 = add i32 %3, 4
  %73 = call zeroext i16 @tvb_get_ntohs(ptr noundef %0, i32 noundef %72)
  %74 = zext i16 %73 to i32
  %75 = load i32, ptr @hf_nas_eps_esm_ext_apn_ambr_ul, align 4
  %76 = mul nuw nsw i32 %.0.i29, %74
  %77 = call ptr (ptr, i32, ptr, i32, i32, i32, ptr, ...) @proto_tree_add_uint_format_value(ptr noundef %1, i32 noundef %75, ptr noundef %0, i32 noundef %72, i32 noundef 2, i32 noundef %74, ptr noundef nonnull @.str.110, i32 noundef %76, ptr noundef nonnull %.str.46.sink.i28, i32 noundef %74)
  %78 = trunc i32 %4 to i16
  call void @llvm.lifetime.end.p0(i64 4, ptr nonnull %8) #10
  ret i16 %78
}